; ModuleID = '20/1051.c'
source_filename = "20/1051.c"
target datalayout = "e-m:e-p270:32:32-p271:32:32-p272:64:64-i64:64-f80:128-n8:16:32:64-S128"
target triple = "x86_64-pc-linux-gnu"

@str = dso_local global [100 x i8] zeroinitializer, align 16
@substr = dso_local global [100 x i8] zeroinitializer, align 16
@.str = private unnamed_addr constant [5 x i8] c"%s%s\00", align 1
@.str.1 = private unnamed_addr constant [3 x i8] c"%s\00", align 1
@.str.2 = private unnamed_addr constant [4 x i8] c"%s\0A\00", align 1

; Function Attrs: noinline nounwind uwtable
define dso_local i32 @main() #0 {
  %1 = alloca i32, align 4
  %2 = alloca [100 x i8], align 16
  %3 = alloca i8*, align 8
  %4 = alloca i8*, align 8
  %5 = alloca i32, align 4
  %6 = alloca i32, align 4
  %7 = alloca i32, align 4
  store i32 0, i32* %1, align 4
  br label %8

8:                                                ; preds = %38, %0
  %9 = call i32 (i8*, ...) @__isoc99_scanf(i8* getelementptr inbounds ([5 x i8], [5 x i8]* @.str, i64 0, i64 0), i8* getelementptr inbounds ([100 x i8], [100 x i8]* @str, i64 0, i64 0), i8* getelementptr inbounds ([100 x i8], [100 x i8]* @substr, i64 0, i64 0))
  %10 = icmp ne i32 %9, -1
  br i1 %10, label %11, label %50

11:                                               ; preds = %8
  %12 = bitcast [100 x i8]* %2 to i8*
  call void @llvm.memset.p0i8.i64(i8* align 16 %12, i8 0, i64 100, i1 false)
  store i32 0, i32* %5, align 4
  store i32 0, i32* %6, align 4
  store i32 0, i32* %7, align 4
  store i8* getelementptr inbounds ([100 x i8], [100 x i8]* @str, i64 0, i64 0), i8** %3, align 8
  store i8* getelementptr inbounds ([100 x i8], [100 x i8]* @str, i64 0, i64 0), i8** %4, align 8
  store i32 0, i32* %6, align 4
  br label %13

13:                                               ; preds = %35, %11
  %14 = load i8*, i8** %3, align 8
  %15 = ptrtoint i8* %14 to i64
  %16 = sub i64 %15, ptrtoint ([100 x i8]* @str to i64)
  %17 = call i64 @strlen(i8* getelementptr inbounds ([100 x i8], [100 x i8]* @str, i64 0, i64 0)) #5
  %18 = icmp ult i64 %16, %17
  br i1 %18, label %19, label %38

19:                                               ; preds = %13
  %20 = load i8*, i8** %3, align 8
  %21 = load i8, i8* %20, align 1
  %22 = sext i8 %21 to i32
  %23 = load i32, i32* %7, align 4
  %24 = icmp sgt i32 %22, %23
  br i1 %24, label %25, label %34

25:                                               ; preds = %19
  %26 = load i8*, i8** %3, align 8
  %27 = load i8, i8* %26, align 1
  %28 = sext i8 %27 to i32
  store i32 %28, i32* %7, align 4
  %29 = load i8*, i8** %3, align 8
  store i8* %29, i8** %4, align 8
  %30 = load i8*, i8** %4, align 8
  %31 = ptrtoint i8* %30 to i64
  %32 = sub i64 %31, ptrtoint ([100 x i8]* @str to i64)
  %33 = trunc i64 %32 to i32
  store i32 %33, i32* %5, align 4
  br label %34

34:                                               ; preds = %25, %19
  br label %35

35:                                               ; preds = %34
  %36 = load i8*, i8** %3, align 8
  %37 = getelementptr inbounds i8, i8* %36, i32 1
  store i8* %37, i8** %3, align 8
  br label %13

38:                                               ; preds = %13
  %39 = getelementptr inbounds [100 x i8], [100 x i8]* %2, i64 0, i64 0
  %40 = load i32, i32* %5, align 4
  %41 = add nsw i32 %40, 1
  %42 = sext i32 %41 to i64
  %43 = call i8* @strncpy(i8* %39, i8* getelementptr inbounds ([100 x i8], [100 x i8]* @str, i64 0, i64 0), i64 %42) #6
  %44 = getelementptr inbounds [100 x i8], [100 x i8]* %2, i64 0, i64 0
  %45 = call i32 (i8*, ...) @printf(i8* getelementptr inbounds ([3 x i8], [3 x i8]* @.str.1, i64 0, i64 0), i8* %44)
  %46 = call i32 (i8*, ...) @printf(i8* getelementptr inbounds ([3 x i8], [3 x i8]* @.str.1, i64 0, i64 0), i8* getelementptr inbounds ([100 x i8], [100 x i8]* @substr, i64 0, i64 0))
  %47 = load i8*, i8** %4, align 8
  %48 = getelementptr inbounds i8, i8* %47, i64 1
  %49 = call i32 (i8*, ...) @printf(i8* getelementptr inbounds ([4 x i8], [4 x i8]* @.str.2, i64 0, i64 0), i8* %48)
  br label %8

50:                                               ; preds = %8
  ret i32 0
}

declare dso_local i32 @__isoc99_scanf(i8*, ...) #1

; Function Attrs: argmemonly nounwind willreturn
declare void @llvm.memset.p0i8.i64(i8* nocapture writeonly, i8, i64, i1 immarg) #2

; Function Attrs: nounwind readonly
declare dso_local i64 @strlen(i8*) #3

; Function Attrs: nounwind
declare dso_local i8* @strncpy(i8*, i8*, i64) #4

declare dso_local i32 @printf(i8*, ...) #1


!llvm.module.flags = !{!0}
!llvm.ident = !{!1}

!0 = !{i32 1, !"wchar_size", i32 4}
!1 = !{!"clang version 10.0.0-4ubuntu1 "}
